target datalayout = "e-m:e-p270:32:32-p271:32:32-p272:64:64-i64:64-i128:128-f80:128-n8:16:32:64-S128"
target triple = "x86_64-pc-linux-gnu"

%struct.stat = type { i64, i64, i64, i32, i32, i32, i32, i64, i64, i64, i64, %struct.timespec, %struct.timespec, %struct.timespec, [3 x i64] }
%struct.timespec = type { i64, i64 }
%struct.dirent = type { i64, i64, i16, i8, [256 x i8] }

@.str = private unnamed_addr constant [2 x i8] c".\00", align 1
@.str.1 = private unnamed_addr constant [3 x i8] c"..\00", align 1

; Function Attrs: mustprogress nounwind uwtable
define internal noundef zeroext i1 @_ZN32pxrInternal_v0_24__pxrReserved__L7Tf_StatERKNSt7__cxx1112basic_stringIcSt11char_traitsIcESaIcEEEbP4stat(ptr noundef nonnull align 8 dereferenceable(32) %0, i1 noundef zeroext %1, ptr noundef %2) #1 {
  %4 = alloca i1, align 1
  %5 = alloca ptr, align 8
  %6 = alloca i8, align 1
  %7 = alloca ptr, align 8
  %8 = alloca %struct.stat, align 8
  %9 = alloca i32, align 4
  store ptr %0, ptr %5, align 8
  %10 = zext i1 %1 to i8
  store i8 %10, ptr %6, align 1
  store ptr %2, ptr %7, align 8
  %11 = load ptr, ptr %5, align 8
  %12 = call noundef zeroext i1 @_ZNKSt7__cxx1112basic_stringIcSt11char_traitsIcESaIcEE5emptyEv(ptr noundef nonnull align 8 dereferenceable(32) %11) #6
  br i1 %12, label %13, label %14

13:                                               ; preds = %3
  store i1 false, ptr %4, align 1
  br label %35

14:                                               ; preds = %3
  %15 = load ptr, ptr %7, align 8
  %16 = icmp ne ptr %15, null
  br i1 %16, label %18, label %17

17:                                               ; preds = %14
  store ptr %8, ptr %7, align 8
  br label %18

18:                                               ; preds = %17, %14
  %19 = load i8, ptr %6, align 1
  %20 = trunc i8 %19 to i1
  br i1 %20, label %21, label %26

21:                                               ; preds = %18
  %22 = load ptr, ptr %5, align 8
  %23 = call noundef ptr @_ZNKSt7__cxx1112basic_stringIcSt11char_traitsIcESaIcEE5c_strEv(ptr noundef nonnull align 8 dereferenceable(32) %22) #6
  %24 = load ptr, ptr %7, align 8
  %25 = call i32 @stat(ptr noundef %23, ptr noundef %24) #6
  br label %31

26:                                               ; preds = %18
  %27 = load ptr, ptr %5, align 8
  %28 = call noundef ptr @_ZNKSt7__cxx1112basic_stringIcSt11char_traitsIcESaIcEE5c_strEv(ptr noundef nonnull align 8 dereferenceable(32) %27) #6
  %29 = load ptr, ptr %7, align 8
  %30 = call i32 @lstat(ptr noundef %28, ptr noundef %29) #6
  br label %31

31:                                               ; preds = %26, %21
  %32 = phi i32 [ %25, %21 ], [ %30, %26 ]
  store i32 %32, ptr %9, align 4
  %33 = load i32, ptr %9, align 4
  %34 = icmp eq i32 %33, 0
  store i1 %34, ptr %4, align 1
  br label %35

35:                                               ; preds = %31, %13
  %36 = load i1, ptr %4, align 1
  ret i1 %36
}

; Function Attrs: mustprogress uwtable
define noundef zeroext i1 @_ZN32pxrInternal_v0_24__pxrReserved__7TfIsDirERKNSt7__cxx1112basic_stringIcSt11char_traitsIcESaIcEEEb(ptr noundef nonnull align 8 dereferenceable(32) %0, i1 noundef zeroext %1) #0 {
  %3 = alloca i1, align 1
  %4 = alloca ptr, align 8
  %5 = alloca i8, align 1
  %6 = alloca %struct.stat, align 8
  store ptr %0, ptr %4, align 8
  %7 = zext i1 %1 to i8
  store i8 %7, ptr %5, align 1
  %8 = load ptr, ptr %4, align 8
  %9 = load i8, ptr %5, align 1
  %10 = trunc i8 %9 to i1
  %11 = call noundef zeroext i1 @_ZN32pxrInternal_v0_24__pxrReserved__L7Tf_StatERKNSt7__cxx1112basic_stringIcSt11char_traitsIcESaIcEEEbP4stat(ptr noundef nonnull align 8 dereferenceable(32) %8, i1 noundef zeroext %10, ptr noundef %6)
  br i1 %11, label %12, label %17

12:                                               ; preds = %2
  %13 = getelementptr inbounds nuw %struct.stat, ptr %6, i32 0, i32 3
  %14 = load i32, ptr %13, align 8
  %15 = and i32 %14, 61440
  %16 = icmp eq i32 %15, 16384
  store i1 %16, ptr %3, align 1
  br label %18

17:                                               ; preds = %2
  store i1 false, ptr %3, align 1
  br label %18

18:                                               ; preds = %17, %12
  %19 = load i1, ptr %3, align 1
  ret i1 %19
}

; Function Attrs: mustprogress uwtable
define noundef zeroext i1 @_ZN32pxrInternal_v0_24__pxrReserved__12TfIsDirEmptyERKNSt7__cxx1112basic_stringIcSt11char_traitsIcESaIcEEE(ptr noundef nonnull align 8 dereferenceable(32) %0) #0 {
  %2 = alloca i1, align 1
  %3 = alloca ptr, align 8
  %4 = alloca ptr, align 8
  %5 = alloca ptr, align 8
  store ptr %0, ptr %3, align 8
  %6 = load ptr, ptr %3, align 8
  %7 = call noundef zeroext i1 @_ZN32pxrInternal_v0_24__pxrReserved__7TfIsDirERKNSt7__cxx1112basic_stringIcSt11char_traitsIcESaIcEEEb(ptr noundef nonnull align 8 dereferenceable(32) %6, i1 noundef zeroext false)
  br i1 %7, label %9, label %8

8:                                                ; preds = %1
  store i1 false, ptr %2, align 1
  br label %45

9:                                                ; preds = %1
  %10 = load ptr, ptr %3, align 8
  %11 = call noundef ptr @_ZNKSt7__cxx1112basic_stringIcSt11char_traitsIcESaIcEE5c_strEv(ptr noundef nonnull align 8 dereferenceable(32) %10) #6
  %12 = call ptr @opendir(ptr noundef %11)
  store ptr %12, ptr %4, align 8
  %13 = load ptr, ptr %4, align 8
  %14 = icmp ne ptr %13, null
  br i1 %14, label %15, label %44

15:                                               ; preds = %9
  br label %16

16:                                               ; preds = %40, %15
  %17 = load ptr, ptr %4, align 8
  %18 = call ptr @readdir(ptr noundef %17)
  store ptr %18, ptr %5, align 8
  %19 = icmp ne ptr %18, null
  br i1 %19, label %20, label %41

20:                                               ; preds = %16
  %21 = load ptr, ptr %5, align 8
  %22 = getelementptr inbounds nuw %struct.dirent, ptr %21, i32 0, i32 0
  %23 = load i64, ptr %22, align 8
  %24 = icmp ugt i64 %23, 0
  br i1 %24, label %25, label %40

25:                                               ; preds = %20
  %26 = load ptr, ptr %5, align 8
  %27 = getelementptr inbounds nuw %struct.dirent, ptr %26, i32 0, i32 4
  %28 = getelementptr inbounds [256 x i8], ptr %27, i64 0, i64 0
  %29 = call i32 @strcmp(ptr noundef %28, ptr noundef @.str) #16
  %30 = icmp ne i32 %29, 0
  br i1 %30, label %31, label %40

31:                                               ; preds = %25
  %32 = load ptr, ptr %5, align 8
  %33 = getelementptr inbounds nuw %struct.dirent, ptr %32, i32 0, i32 4
  %34 = getelementptr inbounds [256 x i8], ptr %33, i64 0, i64 0
  %35 = call i32 @strcmp(ptr noundef %34, ptr noundef @.str.1) #16
  %36 = icmp ne i32 %35, 0
  br i1 %36, label %37, label %40

37:                                               ; preds = %31
  %38 = load ptr, ptr %4, align 8
  %39 = call i32 @closedir(ptr noundef %38)
  store i1 false, ptr %2, align 1
  br label %45

40:                                               ; preds = %31, %25, %20
  br label %16, !llvm.loop !4

41:                                               ; preds = %16
  %42 = load ptr, ptr %4, align 8
  %43 = call i32 @closedir(ptr noundef %42)
  store i1 true, ptr %2, align 1
  br label %45

44:                                               ; preds = %9
  store i1 false, ptr %2, align 1
  br label %45

45:                                               ; preds = %44, %41, %37, %8
  %46 = load i1, ptr %2, align 1
  ret i1 %46
}