; Function Attrs: mustprogress uwtable
define noundef zeroext i1 @_ZN32pxrInternal_v0_24__pxrReserved__12TfIsDirEmptyERKNSt7__cxx1112basic_stringIcSt11char_traitsIcESaIcEEE(ptr noundef nonnull align 8 dereferenceable(32) %0) local_unnamed_addr #3 {
  %2 = alloca %struct.stat, align 8
  call void @llvm.lifetime.start.p0(i64 144, ptr nonnull %2)
  %3 = tail call noundef zeroext i1 @_ZNKSt7__cxx1112basic_stringIcSt11char_traitsIcESaIcEE5emptyEv(ptr noundef nonnull align 8 dereferenceable(32) %0) #21
  br i1 %3, label %_ZN32pxrInternal_v0_24__pxrReserved__7TfIsDirERKNSt7__cxx1112basic_stringIcSt11char_traitsIcESaIcEEEb.exit.thread, label %_ZN32pxrInternal_v0_24__pxrReserved__7TfIsDirERKNSt7__cxx1112basic_stringIcSt11char_traitsIcESaIcEEEb.exit

_ZN32pxrInternal_v0_24__pxrReserved__7TfIsDirERKNSt7__cxx1112basic_stringIcSt11char_traitsIcESaIcEEEb.exit.thread: ; preds = %1
  call void @llvm.lifetime.end.p0(i64 144, ptr nonnull %2)
  br label %30

_ZN32pxrInternal_v0_24__pxrReserved__7TfIsDirERKNSt7__cxx1112basic_stringIcSt11char_traitsIcESaIcEEEb.exit: ; preds = %1
  %4 = tail call noundef ptr @_ZNKSt7__cxx1112basic_stringIcSt11char_traitsIcESaIcEE5c_strEv(ptr noundef nonnull align 8 dereferenceable(32) %0) #21
  %5 = call i32 @lstat(ptr noundef %4, ptr noundef nonnull %2) #21
  %6 = icmp eq i32 %5, 0
  %.phi.trans.insert.i = getelementptr inbounds nuw i8, ptr %2, i64 24
  %.pre.i = load i32, ptr %.phi.trans.insert.i, align 8
  %7 = and i32 %.pre.i, 61440
  %8 = icmp eq i32 %7, 16384
  %9 = select i1 %6, i1 %8, i1 false
  call void @llvm.lifetime.end.p0(i64 144, ptr nonnull %2)
  br i1 %9, label %10, label %30

10:                                               ; preds = %_ZN32pxrInternal_v0_24__pxrReserved__7TfIsDirERKNSt7__cxx1112basic_stringIcSt11char_traitsIcESaIcEEEb.exit
  %11 = tail call noundef ptr @_ZNKSt7__cxx1112basic_stringIcSt11char_traitsIcESaIcEE5c_strEv(ptr noundef nonnull align 8 dereferenceable(32) %0) #21
  %12 = tail call ptr @opendir(ptr noundef %11)
  %.not = icmp eq ptr %12, null
  br i1 %.not, label %30, label %.preheader

.preheader:                                       ; preds = %10
  %13 = tail call ptr @readdir(ptr noundef nonnull %12)
  %.not1120 = icmp eq ptr %13, null
  br i1 %.not1120, label %._crit_edge, label %.lr.ph

.lr.ph:                                           ; preds = %.preheader, %27
  %14 = phi ptr [ %28, %27 ], [ %13, %.preheader ]
  %15 = load i64, ptr %14, align 8
  %.not12 = icmp eq i64 %15, 0
  br i1 %.not12, label %27, label %sub_0

sub_0:                                            ; preds = %.lr.ph
  %16 = getelementptr inbounds nuw i8, ptr %14, i64 19
  %17 = load i8, ptr %16, align 1
  %.not21 = icmp eq i8 %17, 46
  br i1 %.not21, label %.tail, label %.tail16.thread

.tail:                                            ; preds = %sub_0
  %18 = getelementptr inbounds i8, ptr %14, i64 20
  %19 = load i8, ptr %18, align 1
  %20 = icmp eq i8 %19, 0
  br i1 %20, label %27, label %sub_118

sub_118:                                          ; preds = %.tail
  %21 = getelementptr inbounds i8, ptr %14, i64 20
  %22 = load i8, ptr %21, align 1
  %.not23 = icmp eq i8 %22, 46
  br i1 %.not23, label %.tail16, label %.tail16.thread

.tail16:                                          ; preds = %sub_118
  %23 = getelementptr inbounds i8, ptr %14, i64 21
  %24 = load i8, ptr %23, align 1
  %25 = icmp eq i8 %24, 0
  br i1 %25, label %27, label %.tail16.thread

.tail16.thread:                                   ; preds = %sub_0, %sub_118, %.tail16
  %26 = tail call i32 @closedir(ptr noundef nonnull %12)
  br label %30

27:                                               ; preds = %.tail16, %.tail, %.lr.ph
  %28 = tail call ptr @readdir(ptr noundef nonnull %12)
  %.not11 = icmp eq ptr %28, null
  br i1 %.not11, label %._crit_edge, label %.lr.ph, !llvm.loop !4

._crit_edge:                                      ; preds = %27, %.preheader
  %29 = tail call i32 @closedir(ptr noundef nonnull %12)
  br label %30

30:                                               ; preds = %_ZN32pxrInternal_v0_24__pxrReserved__7TfIsDirERKNSt7__cxx1112basic_stringIcSt11char_traitsIcESaIcEEEb.exit.thread, %10, %_ZN32pxrInternal_v0_24__pxrReserved__7TfIsDirERKNSt7__cxx1112basic_stringIcSt11char_traitsIcESaIcEEEb.exit, %._crit_edge, %.tail16.thread
  %.0 = phi i1 [ false, %.tail16.thread ], [ true, %._crit_edge ], [ false, %_ZN32pxrInternal_v0_24__pxrReserved__7TfIsDirERKNSt7__cxx1112basic_stringIcSt11char_traitsIcESaIcEEEb.exit ], [ false, %10 ], [ false, %_ZN32pxrInternal_v0_24__pxrReserved__7TfIsDirERKNSt7__cxx1112basic_stringIcSt11char_traitsIcESaIcEEEb.exit.thread ]
  ret i1 %.0
}